; Function Attrs: mustprogress uwtable
define dso_local void @_ZN18StringBaseResourceC2EP7SRBRootaRKN6icu_7713UnicodeStringER10UErrorCode(ptr noundef nonnull align 8 dereferenceable(120) initializes((0, 10), (12, 40)) %0, ptr readnone captures(none) %1, i8 noundef signext %2, ptr noundef nonnull align 8 dereferenceable(64) %3, ptr noundef nonnull align 4 captures(none) dereferenceable(4) %4) unnamed_addr #7 align 2 personality ptr @__gxx_personality_v0 {
_ZN9SResourceC2EP7SRBRootPKcaPK7UStringR10UErrorCode.exit:
  store ptr getelementptr inbounds nuw inrange(-16, 64) (i8, ptr @_ZTV9SResource, i64 16), ptr %0, align 8, !tbaa !9
  %5 = getelementptr inbounds nuw i8, ptr %0, i64 8
  store i8 %2, ptr %5, align 8, !tbaa !11
  %6 = getelementptr inbounds nuw i8, ptr %0, i64 9
  store i8 0, ptr %6, align 1, !tbaa !17
  %7 = getelementptr inbounds nuw i8, ptr %0, i64 12
  %8 = getelementptr inbounds nuw i8, ptr %0, i64 28
  tail call void @llvm.memset.p0.i64(ptr noundef nonnull align 4 dereferenceable(16) %7, i8 -1, i64 16, i1 false)
  store i32 0, ptr %8, align 4, !tbaa !18
  %9 = getelementptr inbounds nuw i8, ptr %0, i64 32
  store ptr null, ptr %9, align 8, !tbaa !19
  %10 = getelementptr inbounds nuw i8, ptr %0, i64 40
  tail call void @ustr_init(ptr noundef nonnull %10)
  store ptr getelementptr inbounds nuw inrange(-16, 64) (i8, ptr @_ZTV18StringBaseResource, i64 16), ptr %0, align 8, !tbaa !9
  %11 = getelementptr inbounds nuw i8, ptr %0, i64 56
  invoke void @_ZN6icu_7713UnicodeStringC1ERKS0_(ptr noundef nonnull align 8 dereferenceable(64) %11, ptr noundef nonnull align 8 dereferenceable(64) %3)
          to label %12 unwind label %21

12:                                               ; preds = %_ZN9SResourceC2EP7SRBRootPKcaPK7UStringR10UErrorCode.exit
  %13 = getelementptr inbounds nuw i8, ptr %3, i64 8
  %14 = load i16, ptr %13, align 8, !tbaa !4
  %15 = icmp ult i16 %14, 32
  %16 = load i32, ptr @_ZL14gFormatVersion, align 4
  %17 = icmp sgt i32 %16, 1
  %or.cond = select i1 %15, i1 %17, i1 false
  br i1 %or.cond, label %18, label %25

18:                                               ; preds = %12
  %19 = zext i8 %2 to i32
  %20 = shl i32 %19, 28
  store i32 %20, ptr %7, align 4, !tbaa !20
  store i8 1, ptr %6, align 1, !tbaa !17
  br label %35

21:                                               ; preds = %_ZN9SResourceC2EP7SRBRootPKcaPK7UStringR10UErrorCode.exit
  %22 = landingpad { ptr, i32 }
          cleanup
  br label %36

23:                                               ; preds = %25
  %24 = landingpad { ptr, i32 }
          cleanup
  tail call void @_ZN6icu_7713UnicodeStringD1Ev(ptr noundef nonnull align 8 dereferenceable(64) %11) #34
  br label %36

25:                                               ; preds = %12
  %26 = invoke noundef ptr @_ZN6icu_7713UnicodeString19getTerminatedBufferEv(ptr noundef nonnull align 8 dereferenceable(64) %11)
          to label %27 unwind label %23

27:                                               ; preds = %25
  %28 = load i32, ptr %4, align 4, !tbaa !22
  %29 = icmp sgt i32 %28, 0
  br i1 %29, label %35, label %30

30:                                               ; preds = %27
  %31 = getelementptr inbounds nuw i8, ptr %0, i64 64
  %32 = load i16, ptr %31, align 8, !tbaa !4
  %33 = and i16 %32, 1
  %.not13 = icmp eq i16 %33, 0
  br i1 %.not13, label %35, label %34

34:                                               ; preds = %30
  store i32 7, ptr %4, align 4, !tbaa !22
  br label %35

35:                                               ; preds = %34, %30, %27, %18
  ret void

36:                                               ; preds = %23, %21
  %.pn = phi { ptr, i32 } [ %24, %23 ], [ %22, %21 ]
  tail call void @_ZN9SResourceD2Ev(ptr noundef nonnull align 8 dereferenceable(56) %0) #34
  resume { ptr, i32 } %.pn
}